target datalayout = "e-m:e-p270:32:32-p271:32:32-p272:64:64-i64:64-i128:128-f80:128-n8:16:32:64-S128"
target triple = "x86_64-pc-linux-gnu"

%struct.pm_node_list = type { i64, i64, ptr }

; Function Attrs: nounwind sspstrong uwtable
define hidden void @pm_node_list_free(ptr noundef %0) #0 {
  %2 = alloca ptr, align 8
  %3 = alloca %struct.pm_node_list, align 8
  store ptr %0, ptr %2, align 8, !tbaa !7
  %4 = load ptr, ptr %2, align 8, !tbaa !7
  %5 = getelementptr inbounds nuw %struct.pm_node_list, ptr %4, i32 0, i32 1
  %6 = load i64, ptr %5, align 8, !tbaa !20
  %7 = icmp ugt i64 %6, 0
  br i1 %7, label %8, label %13

8:                                                ; preds = %1
  %9 = load ptr, ptr %2, align 8, !tbaa !7
  %10 = getelementptr inbounds nuw %struct.pm_node_list, ptr %9, i32 0, i32 2
  %11 = load ptr, ptr %10, align 8, !tbaa !14
  call void @free(ptr noundef %11) #9
  %12 = load ptr, ptr %2, align 8, !tbaa !7
  call void @llvm.memset.p0.i64(ptr align 8 %3, i8 0, i64 24, i1 false)
  call void @llvm.memcpy.p0.p0.i64(ptr align 8 %12, ptr align 8 %3, i64 24, i1 false), !tbaa.struct !25
  br label %13

13:                                               ; preds = %8, %1
  ret void
}

; Function Attrs: nounwind sspstrong uwtable
define internal void @pm_node_list_destroy(ptr noundef %0, ptr noundef %1) #0 {
  %3 = alloca ptr, align 8
  %4 = alloca ptr, align 8
  %5 = alloca ptr, align 8
  %6 = alloca i64, align 8
  store ptr %0, ptr %3, align 8, !tbaa !26
  store ptr %1, ptr %4, align 8, !tbaa !7
  call void @llvm.lifetime.start.p0(i64 8, ptr %5) #9
  call void @llvm.lifetime.start.p0(i64 8, ptr %6) #9
  store i64 0, ptr %6, align 8, !tbaa !19
  br label %7

7:                                                ; preds = %27, %2
  %8 = load i64, ptr %6, align 8, !tbaa !19
  %9 = load ptr, ptr %4, align 8, !tbaa !7
  %10 = getelementptr inbounds nuw %struct.pm_node_list, ptr %9, i32 0, i32 0
  %11 = load i64, ptr %10, align 8, !tbaa !18
  %12 = icmp ult i64 %8, %11
  br i1 %12, label %13, label %21

13:                                               ; preds = %7
  %14 = load ptr, ptr %4, align 8, !tbaa !7
  %15 = getelementptr inbounds nuw %struct.pm_node_list, ptr %14, i32 0, i32 2
  %16 = load ptr, ptr %15, align 8, !tbaa !14
  %17 = load i64, ptr %6, align 8, !tbaa !19
  %18 = getelementptr ptr, ptr %16, i64 %17
  %19 = load ptr, ptr %18, align 8, !tbaa !12
  store ptr %19, ptr %5, align 8, !tbaa !12
  %20 = icmp ne ptr %19, null
  br label %21

21:                                               ; preds = %13, %7
  %22 = phi i1 [ false, %7 ], [ %20, %13 ]
  br i1 %22, label %24, label %23

23:                                               ; preds = %21
  call void @llvm.lifetime.end.p0(i64 8, ptr %6) #9
  br label %30

24:                                               ; preds = %21
  %25 = load ptr, ptr %3, align 8, !tbaa !26
  %26 = load ptr, ptr %5, align 8, !tbaa !12
  call void @pm_node_destroy(ptr noundef %25, ptr noundef %26)
  br label %27

27:                                               ; preds = %24
  %28 = load i64, ptr %6, align 8, !tbaa !19
  %29 = add i64 %28, 1
  store i64 %29, ptr %6, align 8, !tbaa !19
  br label %7, !llvm.loop !528

30:                                               ; preds = %23
  %31 = load ptr, ptr %4, align 8, !tbaa !7
  call void @pm_node_list_free(ptr noundef %31)
  call void @llvm.lifetime.end.p0(i64 8, ptr %5) #9
  ret void
}