; Function Attrs: nounwind sspstrong uwtable
define internal fastcc void @pm_node_list_destroy(ptr noundef %0, ptr noundef captures(none) %1) unnamed_addr #0 {
  %3 = getelementptr inbounds nuw i8, ptr %1, i64 16
  %4 = load i64, ptr %1, align 8, !tbaa !7
  %.not10 = icmp eq i64 %4, 0
  br i1 %.not10, label %.critedge, label %.lr.ph

.lr.ph:                                           ; preds = %2, %12
  %.08 = phi i64 [ %13, %12 ], [ 0, %2 ]
  %5 = load ptr, ptr %3, align 8, !tbaa !15
  %6 = getelementptr ptr, ptr %5, i64 %.08
  %7 = load ptr, ptr %6, align 8, !tbaa !18
  %.not = icmp eq ptr %7, null
  br i1 %.not, label %.critedge, label %12

.critedge:                                        ; preds = %.lr.ph, %12, %2
  %8 = getelementptr inbounds nuw i8, ptr %1, i64 8
  %9 = load i64, ptr %8, align 8, !tbaa !14
  %.not.i = icmp eq i64 %9, 0
  br i1 %.not.i, label %pm_node_list_free.exit, label %10

10:                                               ; preds = %.critedge
  %11 = load ptr, ptr %3, align 8, !tbaa !15
  tail call void @free(ptr noundef %11) #9
  tail call void @llvm.memset.p0.i64(ptr noundef nonnull align 8 dereferenceable(24) %1, i8 0, i64 24, i1 false)
  br label %pm_node_list_free.exit

pm_node_list_free.exit:                           ; preds = %.critedge, %10
  ret void

12:                                               ; preds = %.lr.ph
  tail call void @pm_node_destroy(ptr noundef %0, ptr noundef nonnull %7)
  %13 = add nuw i64 %.08, 1
  %14 = load i64, ptr %1, align 8, !tbaa !7
  %15 = icmp ult i64 %13, %14
  br i1 %15, label %.lr.ph, label %.critedge, !llvm.loop !299
}